ccopy_reg
_reconstructor
p1
(csklearn_pandas.dataframe_mapper
DataFrameMapper
p2
c__builtin__
object
p3
NtRp4
(dp5
S'df_out'
p6
I00
sS'features'
p7
(lp8
((lp9
S'Age'
p10
a(lp11
g1
(csklearn.preprocessing.imputation
Imputer
p12
g3
NtRp13
(dp14
S'verbose'
p15
I0
sS'strategy'
p16
S'mean'
p17
sS'axis'
p18
I0
sS'statistics_'
p19
cnumpy.core.multiarray
_reconstruct
p20
(cnumpy
ndarray
p21
(I0
tS'b'
tRp22
(I1
(I1
tcnumpy
dtype
p23
(S'f8'
I0
I1
tRp24
(I3
S'<'
NNNI-1
I-1
I0
tbI00
S'T\x82-\x95\xddv=@'
tbsS'_sklearn_version'
p25
S'0.19.1'
p26
sS'copy'
p27
I01
sS'missing_values'
p28
S'NaN'
p29
sbag1
(csklearn.preprocessing.data
StandardScaler
p30
g3
NtRp31
(dp32
S'mean_'
p33
g20
(g21
(I0
tS'b'
tRp34
(I1
(I1
tg24
I00
S'T\x82-\x95\xddv=@'
tbsS'with_mean'
p35
I01
sS'var_'
p36
g20
(g21
(I0
tS'b'
tRp37
(I1
(I1
tg24
I00
S'M\xe6\x03\x03\xeb\xf1d@'
tbsS'scale_'
p38
g20
(g21
(I0
tS'b'
tRp39
(I1
(I1
tg24
I00
S'\xf7\xe8\x9a\xc8\x94\xe3)@'
tbsS'with_std'
p40
I01
sS'n_samples_seen_'
p41
I705
sg25
g26
sg27
I01
sbatp42
a((lp43
S'SibSp'
p44
a(lp45
g1
(g12
g3
NtRp46
(dp47
g15
I0
sg16
g17
sg18
I0
sg19
g20
(g21
(I0
tS'b'
tRp48
(I1
(I1
tg24
I00
S'\xa9\xae\xdf\x98\x1b\xb4\xe0?'
tbsg25
g26
sg27
I01
sg28
g29
sbag1
(g30
g3
NtRp49
(dp50
g33
g20
(g21
(I0
tS'b'
tRp51
(I1
(I1
tg24
I00
S'\xa9\xae\xdf\x98\x1b\xb4\xe0?'
tbsg35
I01
sg36
g20
(g21
(I0
tS'b'
tRp52
(I1
(I1
tg24
I00
S'\rT\x13j\x86\x9a\xf5?'
tbsg38
g20
(g21
(I0
tS'b'
tRp53
(I1
(I1
tg24
I00
S'\x94\x1e\xb7\x1e\x85\x97\xf2?'
tbsg40
I01
sg41
I705
sg25
g26
sg27
I01
sbatp54
a((lp55
S'Parch'
p56
a(lp57
g1
(g12
g3
NtRp58
(dp59
g15
I0
sg16
g17
sg18
I0
sg19
g20
(g21
(I0
tS'b'
tRp60
(I1
(I1
tg24
I00
S'\xca\xd46\xa9\xae\xdf\xd8?'
tbsg25
g26
sg27
I01
sg28
g29
sbag1
(g30
g3
NtRp61
(dp62
g33
g20
(g21
(I0
tS'b'
tRp63
(I1
(I1
tg24
I00
S'\xca\xd46\xa9\xae\xdf\xd8?'
tbsg35
I01
sg36
g20
(g21
(I0
tS'b'
tRp64
(I1
(I1
tg24
I00
S'<|\xd2\xae&!\xe5?'
tbsg38
g20
(g21
(I0
tS'b'
tRp65
(I1
(I1
tg24
I00
S'\x8e\xa5kU\xb5\x00\xea?'
tbsg40
I01
sg41
I705
sg25
g26
sg27
I01
sbatp66
a((lp67
S'male'
p68
a(lp69
g1
(g12
g3
NtRp70
(dp71
g15
I0
sg16
S'most_frequent'
p72
sg18
I0
sg19
g20
(g21
(I0
tS'b'
tRp73
(I1
(I1
tg24
I00
S'\x00\x00\x00\x00\x00\x00\xf0?'
tbsg25
g26
sg27
I01
sg28
g29
sbatp74
asS'input_df'
p75
I00
sS'default'
p76
I00
sS'transformed_names_'
p77
(lp78
g10
ag44
ag56
ag68
asS'sparse'
p79
I00
sS'built_features'
p80
(lp81
(g9
g1
(csklearn_pandas.pipeline
TransformerPipeline
p82
g3
NtRp83
(dp84
S'steps'
p85
(lp86
(S'imputer'
g13
tp87
a(S'standardscaler'
g31
tp88
asb(dp89
tp90
a(g43
g1
(g82
g3
NtRp91
(dp92
g85
(lp93
(S'imputer'
g46
tp94
a(S'standardscaler'
g49
tp95
asbg89
tp96
a(g55
g1
(g82
g3
NtRp97
(dp98
g85
(lp99
(S'imputer'
g58
tp100
a(S'standardscaler'
g61
tp101
asbg89
tp102
a(g67
g1
(g82
g3
NtRp103
(dp104
g85
(lp105
(S'imputer'
g70
tp106
asbg89
tp107
asS'built_default'
p108
I00
sb.